target datalayout = "e-m:e-p270:32:32-p271:32:32-p272:64:64-i64:64-i128:128-f80:128-n8:16:32:64-S128"
target triple = "x86_64-pc-linux-gnu"

%struct._zend_llist = type { ptr, ptr, i64, i64, ptr, i8, ptr }
%struct._zend_llist_element = type { ptr, ptr, [1 x i8] }
%struct._zend_fiber_context = type { ptr, ptr, ptr, ptr, ptr, i32, ptr, [6 x ptr] }

@zend_observer_fiber_init = internal global %struct._zend_llist zeroinitializer, align 8

; Function Attrs: nounwind uwtable
define dso_local void @zend_observer_fiber_init_notify(ptr noundef %0) #0 {
  %2 = alloca ptr, align 8
  %3 = alloca ptr, align 8
  %4 = alloca ptr, align 8
  store ptr %0, ptr %2, align 8, !tbaa !96
  call void @llvm.lifetime.start.p0(i64 8, ptr %3) #8
  call void @llvm.lifetime.start.p0(i64 8, ptr %4) #8
  %5 = load ptr, ptr %2, align 8, !tbaa !96
  %6 = getelementptr inbounds nuw %struct._zend_fiber_context, ptr %5, i32 0, i32 6
  store ptr null, ptr %6, align 8, !tbaa !97
  %7 = load ptr, ptr @zend_observer_fiber_init, align 8, !tbaa !83
  store ptr %7, ptr %3, align 8, !tbaa !84
  br label %8

8:                                                ; preds = %18, %1
  %9 = load ptr, ptr %3, align 8, !tbaa !84
  %10 = icmp ne ptr %9, null
  br i1 %10, label %11, label %22

11:                                               ; preds = %8
  %12 = load ptr, ptr %3, align 8, !tbaa !84
  %13 = getelementptr inbounds nuw %struct._zend_llist_element, ptr %12, i32 0, i32 2
  %14 = getelementptr inbounds [1 x i8], ptr %13, i64 0, i64 0
  %15 = load ptr, ptr %14, align 8, !tbaa !4
  store ptr %15, ptr %4, align 8, !tbaa !4
  %16 = load ptr, ptr %4, align 8, !tbaa !4
  %17 = load ptr, ptr %2, align 8, !tbaa !96
  call void %16(ptr noundef %17)
  br label %18

18:                                               ; preds = %11
  %19 = load ptr, ptr %3, align 8, !tbaa !84
  %20 = getelementptr inbounds nuw %struct._zend_llist_element, ptr %19, i32 0, i32 0
  %21 = load ptr, ptr %20, align 8, !tbaa !88
  store ptr %21, ptr %3, align 8, !tbaa !84
  br label %8

22:                                               ; preds = %8
  call void @llvm.lifetime.end.p0(i64 8, ptr %4) #8
  call void @llvm.lifetime.end.p0(i64 8, ptr %3) #8
  ret void
}