; Function Attrs: nounwind uwtable
define dso_local void @zend_observer_fiber_init_notify(ptr noundef initializes((48, 56)) %0) local_unnamed_addr #0 {
  %2 = getelementptr inbounds nuw i8, ptr %0, i64 48
  store ptr null, ptr %2, align 8, !tbaa !77
  %.06 = load ptr, ptr @zend_observer_fiber_init, align 8, !tbaa !72
  %.not7 = icmp eq ptr %.06, null
  br i1 %.not7, label %._crit_edge, label %.lr.ph

.lr.ph:                                           ; preds = %1, %.lr.ph
  %.08 = phi ptr [ %.0, %.lr.ph ], [ %.06, %1 ]
  %3 = getelementptr inbounds nuw i8, ptr %.08, i64 16
  %4 = load ptr, ptr %3, align 8, !tbaa !4
  tail call void %4(ptr noundef %0) #8
  %.0 = load ptr, ptr %.08, align 8, !tbaa !72
  %.not = icmp eq ptr %.0, null
  br i1 %.not, label %._crit_edge, label %.lr.ph

._crit_edge:                                      ; preds = %.lr.ph, %1
  ret void
}